; ModuleID = '40/1376.c'
source_filename = "40/1376.c"
target datalayout = "e-m:e-p270:32:32-p271:32:32-p272:64:64-i64:64-f80:128-n8:16:32:64-S128"
target triple = "x86_64-pc-linux-gnu"

@.str = private unnamed_addr constant [16 x i8] c"%lf %lf %lf %lf\00", align 1
@.str.1 = private unnamed_addr constant [4 x i8] c"%lf\00", align 1
@.str.2 = private unnamed_addr constant [6 x i8] c"%.4lf\00", align 1
@.str.3 = private unnamed_addr constant [14 x i8] c"Invalid input\00", align 1

; Function Attrs: noinline nounwind uwtable
define dso_local i32 @main() #0 {
  %1 = alloca i32, align 4
  %2 = alloca double, align 8
  %3 = alloca double, align 8
  %4 = alloca double, align 8
  %5 = alloca double, align 8
  %6 = alloca double, align 8
  %7 = alloca double, align 8
  %8 = alloca double, align 8
  %9 = alloca double, align 8
  store i32 0, i32* %1, align 4
  %10 = call i32 (i8*, ...) @__isoc99_scanf(i8* getelementptr inbounds ([16 x i8], [16 x i8]* @.str, i64 0, i64 0), double* %3, double* %4, double* %5, double* %6)
  %11 = call i32 (i8*, ...) @__isoc99_scanf(i8* getelementptr inbounds ([4 x i8], [4 x i8]* @.str.1, i64 0, i64 0), double* %7)
  %12 = load double, double* %3, align 8
  %13 = load double, double* %4, align 8
  %14 = fadd double %12, %13
  %15 = load double, double* %5, align 8
  %16 = fadd double %14, %15
  %17 = load double, double* %6, align 8
  %18 = fadd double %16, %17
  %19 = fdiv double %18, 2.000000e+00
  store double %19, double* %9, align 8
  %20 = load double, double* %9, align 8
  %21 = load double, double* %3, align 8
  %22 = fsub double %20, %21
  %23 = load double, double* %9, align 8
  %24 = load double, double* %4, align 8
  %25 = fsub double %23, %24
  %26 = fmul double %22, %25
  %27 = load double, double* %9, align 8
  %28 = load double, double* %5, align 8
  %29 = fsub double %27, %28
  %30 = fmul double %26, %29
  %31 = load double, double* %9, align 8
  %32 = load double, double* %6, align 8
  %33 = fsub double %31, %32
  %34 = fmul double %30, %33
  %35 = load double, double* %3, align 8
  %36 = load double, double* %4, align 8
  %37 = fmul double %35, %36
  %38 = load double, double* %5, align 8
  %39 = fmul double %37, %38
  %40 = load double, double* %6, align 8
  %41 = fmul double %39, %40
  %42 = load double, double* %7, align 8
  %43 = fmul double %42, 0x400921FB4D12D84A
  %44 = fdiv double %43, 3.600000e+02
  %45 = call double @cos(double %44) #3
  %46 = fmul double %41, %45
  %47 = load double, double* %7, align 8
  %48 = fmul double %47, 0x400921FB4D12D84A
  %49 = fdiv double %48, 3.600000e+02
  %50 = call double @cos(double %49) #3
  %51 = fmul double %46, %50
  %52 = fsub double %34, %51
  store double %52, double* %2, align 8
  %53 = load double, double* %2, align 8
  %54 = fcmp ogt double %53, 0.000000e+00
  br i1 %54, label %55, label %60

55:                                               ; preds = %0
  %56 = load double, double* %2, align 8
  %57 = call double @sqrt(double %56) #3
  store double %57, double* %8, align 8
  %58 = load double, double* %8, align 8
  %59 = call i32 (i8*, ...) @printf(i8* getelementptr inbounds ([6 x i8], [6 x i8]* @.str.2, i64 0, i64 0), double %58)
  br label %62

60:                                               ; preds = %0
  %61 = call i32 (i8*, ...) @printf(i8* getelementptr inbounds ([14 x i8], [14 x i8]* @.str.3, i64 0, i64 0))
  br label %62

62:                                               ; preds = %60, %55
  ret i32 0
}

declare dso_local i32 @__isoc99_scanf(i8*, ...) #1

; Function Attrs: nounwind
declare dso_local double @cos(double) #2

; Function Attrs: nounwind
declare dso_local double @sqrt(double) #2

declare dso_local i32 @printf(i8*, ...) #1


!llvm.module.flags = !{!0}
!llvm.ident = !{!1}

!0 = !{i32 1, !"wchar_size", i32 4}
!1 = !{!"clang version 10.0.0-4ubuntu1 "}
